; Function Attrs: mustprogress nounwind uwtable
define hidden noundef ptr @_ZN18ZBarrierSetRuntime53no_keepalive_load_barrier_on_weak_oop_field_preloadedEP7oopDescPS1_(ptr noundef %0, ptr noundef %1) #0 align 2 {
  %3 = ptrtoint ptr %0 to i64
  %4 = load volatile i8, ptr @_ZN13ZResurrection8_blockedE, align 1
  %5 = trunc i8 %4 to i1
  br i1 %5, label %6, label %8

6:                                                ; preds = %2
  %7 = tail call noundef i64 @_ZN8ZBarrier49blocking_load_barrier_on_weak_oop_field_preloadedEPV8zpointerS0_(ptr noundef %1, i64 noundef %3)
  br label %_ZN8ZBarrier54no_keep_alive_load_barrier_on_weak_oop_field_preloadedEPV8zpointerS0_.exit

8:                                                ; preds = %2
  %9 = tail call noundef i64 @_ZN8ZBarrier35load_barrier_on_oop_field_preloadedEPV8zpointerS0_(ptr noundef %1, i64 noundef %3)
  br label %_ZN8ZBarrier54no_keep_alive_load_barrier_on_weak_oop_field_preloadedEPV8zpointerS0_.exit

_ZN8ZBarrier54no_keep_alive_load_barrier_on_weak_oop_field_preloadedEPV8zpointerS0_.exit: ; preds = %6, %8
  %.0.i = phi i64 [ %7, %6 ], [ %9, %8 ]
  %10 = inttoptr i64 %.0.i to ptr
  ret ptr %10
}